target datalayout = "e-m:e-p270:32:32-p271:32:32-p272:64:64-i64:64-i128:128-f80:128-n8:16:32:64-S128"
target triple = "x86_64-pc-linux-gnu"

; Function Attrs: null_pointer_is_valid sspstrong uwtable
define hidden void @decode_mpls_label(ptr noundef %0, i32 noundef %1, ptr noundef %2, ptr noundef %3, ptr noundef %4, ptr noundef %5) #0 {
  %7 = alloca ptr, align 8
  %8 = alloca i32, align 4
  %9 = alloca ptr, align 8
  %10 = alloca ptr, align 8
  %11 = alloca ptr, align 8
  %12 = alloca ptr, align 8
  %13 = alloca i8, align 1
  %14 = alloca i8, align 1
  %15 = alloca i8, align 1
  store ptr %0, ptr %7, align 8
  store i32 %1, ptr %8, align 4
  store ptr %2, ptr %9, align 8
  store ptr %3, ptr %10, align 8
  store ptr %4, ptr %11, align 8
  store ptr %5, ptr %12, align 8
  call void @llvm.lifetime.start.p0(i64 1, ptr %13) #6
  %16 = load ptr, ptr %7, align 8
  %17 = load i32, ptr %8, align 4
  %18 = add i32 %17, 0
  %19 = call zeroext i8 @tvb_get_uint8(ptr noundef %16, i32 noundef %18)
  store i8 %19, ptr %13, align 1
  call void @llvm.lifetime.start.p0(i64 1, ptr %14) #6
  %20 = load ptr, ptr %7, align 8
  %21 = load i32, ptr %8, align 4
  %22 = add i32 %21, 1
  %23 = call zeroext i8 @tvb_get_uint8(ptr noundef %20, i32 noundef %22)
  store i8 %23, ptr %14, align 1
  call void @llvm.lifetime.start.p0(i64 1, ptr %15) #6
  %24 = load ptr, ptr %7, align 8
  %25 = load i32, ptr %8, align 4
  %26 = add i32 %25, 2
  %27 = call zeroext i8 @tvb_get_uint8(ptr noundef %24, i32 noundef %26)
  store i8 %27, ptr %15, align 1
  %28 = load i8, ptr %13, align 1
  %29 = zext i8 %28 to i32
  %30 = shl i32 %29, 12
  %31 = load i8, ptr %14, align 1
  %32 = zext i8 %31 to i32
  %33 = shl i32 %32, 4
  %34 = add i32 %30, %33
  %35 = load i8, ptr %15, align 1
  %36 = zext i8 %35 to i32
  %37 = ashr i32 %36, 4
  %38 = and i32 %37, 255
  %39 = add i32 %34, %38
  %40 = load ptr, ptr %9, align 8
  store i32 %39, ptr %40, align 4
  %41 = load i8, ptr %15, align 1
  %42 = zext i8 %41 to i32
  %43 = ashr i32 %42, 1
  %44 = and i32 %43, 7
  %45 = trunc i32 %44 to i8
  %46 = load ptr, ptr %10, align 8
  store i8 %45, ptr %46, align 1
  %47 = load i8, ptr %15, align 1
  %48 = zext i8 %47 to i32
  %49 = and i32 %48, 1
  %50 = trunc i32 %49 to i8
  %51 = load ptr, ptr %11, align 8
  store i8 %50, ptr %51, align 1
  %52 = load ptr, ptr %7, align 8
  %53 = load i32, ptr %8, align 4
  %54 = add i32 %53, 3
  %55 = call zeroext i8 @tvb_get_uint8(ptr noundef %52, i32 noundef %54)
  %56 = load ptr, ptr %12, align 8
  store i8 %55, ptr %56, align 1
  call void @llvm.lifetime.end.p0(i64 1, ptr %15) #6
  call void @llvm.lifetime.end.p0(i64 1, ptr %14) #6
  call void @llvm.lifetime.end.p0(i64 1, ptr %13) #6
  ret void
}