; Function Attrs: null_pointer_is_valid sspstrong uwtable
define hidden void @decode_mpls_label(ptr noundef %0, i32 noundef %1, ptr noundef writeonly captures(none) initializes((0, 4)) %2, ptr noundef writeonly captures(none) initializes((0, 1)) %3, ptr noundef writeonly captures(none) initializes((0, 1)) %4, ptr noundef writeonly captures(none) initializes((0, 1)) %5) local_unnamed_addr #0 {
  %7 = tail call zeroext i8 @tvb_get_uint8(ptr noundef %0, i32 noundef %1)
  %8 = add i32 %1, 1
  %9 = tail call zeroext i8 @tvb_get_uint8(ptr noundef %0, i32 noundef %8)
  %10 = add i32 %1, 2
  %11 = tail call zeroext i8 @tvb_get_uint8(ptr noundef %0, i32 noundef %10)
  %12 = zext i8 %7 to i32
  %13 = shl nuw nsw i32 %12, 12
  %14 = zext i8 %9 to i32
  %15 = shl nuw nsw i32 %14, 4
  %16 = or disjoint i32 %15, %13
  %17 = lshr i8 %11, 4
  %18 = zext nneg i8 %17 to i32
  %19 = or disjoint i32 %16, %18
  store i32 %19, ptr %2, align 4
  %20 = lshr i8 %11, 1
  %21 = and i8 %20, 7
  store i8 %21, ptr %3, align 1
  %22 = and i8 %11, 1
  store i8 %22, ptr %4, align 1
  %23 = add i32 %1, 3
  %24 = tail call zeroext i8 @tvb_get_uint8(ptr noundef %0, i32 noundef %23)
  store i8 %24, ptr %5, align 1
  ret void
}